target datalayout = "e-m:e-p270:32:32-p271:32:32-p272:64:64-i64:64-i128:128-f80:128-n8:16:32:64-S128"
target triple = "x86_64-pc-linux-gnu"

%struct.Abc_Frame_t_ = type { ptr, ptr, ptr, ptr, ptr, ptr, ptr, ptr, ptr, ptr, i32, i32, i32, i32, i32, ptr, float, float, i32, i32, ptr, ptr, ptr, double, double, ptr, ptr, ptr, ptr, ptr, ptr, ptr, ptr, ptr, ptr, ptr, ptr, float, ptr, i32, ptr, ptr, ptr, ptr, ptr, i32, i32, i32, i32, i32, i32, ptr, ptr, ptr, ptr, ptr, ptr, i32, i32, ptr, ptr, ptr, ptr, ptr, ptr, ptr, ptr, ptr, ptr, ptr, ptr, ptr, ptr, ptr, ptr, ptr, ptr, ptr, ptr, ptr, ptr, ptr, ptr, ptr, ptr, ptr, ptr, ptr, ptr }

@globalUtilOptind = external global i32, align 4
@.str.142 = private unnamed_addr constant [16 x i8] c"Empty network.\0A\00", align 1
@.str.165 = private unnamed_addr constant [2 x i8] c"h\00", align 1
@.str.233 = private unnamed_addr constant [34 x i8] c"\09-h     : print the help massage\0A\00", align 1
@.str.234 = private unnamed_addr constant [41 x i8] c"\09file   : the name of the file to write\0A\00", align 1
@.str.352 = private unnamed_addr constant [30 x i8] c"usage: write_gml [-h] <file>\0A\00", align 1
@.str.353 = private unnamed_addr constant [64 x i8] c"\09         writes network using graph representation formal GML\0A\00", align 1

; Function Attrs: nounwind uwtable
define internal i32 @IoCommandWriteGml(ptr noundef %0, i32 noundef %1, ptr noundef %2) #0 {
  %4 = alloca i32, align 4
  %5 = alloca ptr, align 8
  %6 = alloca i32, align 4
  %7 = alloca ptr, align 8
  %8 = alloca ptr, align 8
  %9 = alloca i32, align 4
  %10 = alloca i32, align 4
  store ptr %0, ptr %5, align 8, !tbaa !3
  store i32 %1, ptr %6, align 4, !tbaa !8
  store ptr %2, ptr %7, align 8, !tbaa !10
  call void @llvm.lifetime.start.p0(i64 8, ptr %8) #11
  call void @llvm.lifetime.start.p0(i64 4, ptr %9) #11
  call void (...) @Extra_UtilGetoptReset()
  br label %11

11:                                               ; preds = %3
  %12 = load i32, ptr %6, align 4, !tbaa !8
  %13 = load ptr, ptr %7, align 8, !tbaa !10
  %14 = call i32 @Extra_UtilGetopt(i32 noundef %12, ptr noundef %13, ptr noundef @.str.165)
  store i32 %14, ptr %9, align 4, !tbaa !8
  %15 = icmp ne i32 %14, -1
  br i1 %15, label %16, label %20

16:                                               ; preds = %11
  %17 = load i32, ptr %9, align 4, !tbaa !8
  switch i32 %17, label %19 [
    i32 104, label %18
  ]

18:                                               ; preds = %16
  br label %46

19:                                               ; preds = %16
  br label %46

20:                                               ; preds = %11
  %21 = load ptr, ptr %5, align 8, !tbaa !3
  %22 = getelementptr inbounds nuw %struct.Abc_Frame_t_, ptr %21, i32 0, i32 6
  %23 = load ptr, ptr %22, align 8, !tbaa !44
  %24 = icmp eq ptr %23, null
  br i1 %24, label %25, label %30

25:                                               ; preds = %20
  %26 = load ptr, ptr %5, align 8, !tbaa !3
  %27 = getelementptr inbounds nuw %struct.Abc_Frame_t_, ptr %26, i32 0, i32 20
  %28 = load ptr, ptr %27, align 8, !tbaa !45
  %29 = call i32 (ptr, ptr, ...) @fprintf(ptr noundef %28, ptr noundef @.str.142) #11
  store i32 0, ptr %4, align 4
  store i32 1, ptr %10, align 4
  br label %63

30:                                               ; preds = %20
  %31 = load i32, ptr %6, align 4, !tbaa !8
  %32 = load i32, ptr @globalUtilOptind, align 4, !tbaa !8
  %33 = add nsw i32 %32, 1
  %34 = icmp ne i32 %31, %33
  br i1 %34, label %35, label %36

35:                                               ; preds = %30
  br label %46

36:                                               ; preds = %30
  %37 = load ptr, ptr %7, align 8, !tbaa !10
  %38 = load i32, ptr @globalUtilOptind, align 4, !tbaa !8
  %39 = sext i32 %38 to i64
  %40 = getelementptr inbounds ptr, ptr %37, i64 %39
  %41 = load ptr, ptr %40, align 8, !tbaa !14
  store ptr %41, ptr %8, align 8, !tbaa !14
  %42 = load ptr, ptr %5, align 8, !tbaa !3
  %43 = getelementptr inbounds nuw %struct.Abc_Frame_t_, ptr %42, i32 0, i32 6
  %44 = load ptr, ptr %43, align 8, !tbaa !44
  %45 = load ptr, ptr %8, align 8, !tbaa !14
  call void @Io_Write(ptr noundef %44, ptr noundef %45, i32 noundef 12)
  store i32 0, ptr %4, align 4
  store i32 1, ptr %10, align 4
  br label %63

46:                                               ; preds = %35, %19, %18
  %47 = load ptr, ptr %5, align 8, !tbaa !3
  %48 = getelementptr inbounds nuw %struct.Abc_Frame_t_, ptr %47, i32 0, i32 21
  %49 = load ptr, ptr %48, align 8, !tbaa !24
  %50 = call i32 (ptr, ptr, ...) @fprintf(ptr noundef %49, ptr noundef @.str.352) #11
  %51 = load ptr, ptr %5, align 8, !tbaa !3
  %52 = getelementptr inbounds nuw %struct.Abc_Frame_t_, ptr %51, i32 0, i32 21
  %53 = load ptr, ptr %52, align 8, !tbaa !24
  %54 = call i32 (ptr, ptr, ...) @fprintf(ptr noundef %53, ptr noundef @.str.353) #11
  %55 = load ptr, ptr %5, align 8, !tbaa !3
  %56 = getelementptr inbounds nuw %struct.Abc_Frame_t_, ptr %55, i32 0, i32 21
  %57 = load ptr, ptr %56, align 8, !tbaa !24
  %58 = call i32 (ptr, ptr, ...) @fprintf(ptr noundef %57, ptr noundef @.str.233) #11
  %59 = load ptr, ptr %5, align 8, !tbaa !3
  %60 = getelementptr inbounds nuw %struct.Abc_Frame_t_, ptr %59, i32 0, i32 21
  %61 = load ptr, ptr %60, align 8, !tbaa !24
  %62 = call i32 (ptr, ptr, ...) @fprintf(ptr noundef %61, ptr noundef @.str.234) #11
  store i32 1, ptr %4, align 4
  store i32 1, ptr %10, align 4
  br label %63

63:                                               ; preds = %46, %36, %25
  call void @llvm.lifetime.end.p0(i64 4, ptr %9) #11
  call void @llvm.lifetime.end.p0(i64 8, ptr %8) #11
  %64 = load i32, ptr %4, align 4
  ret i32 %64
}